(iqieCardClass
qieCard
p0
(dp1
S'comment'
p2
S''
p3
sS'timeOfTest'
p4
g3
sS'temperature'
p5
I25
sS'tester'
p6
g3
sS'passedZero'
p7
I00
sS'passedOnes'
p8
I00
sS'humidity'
p9
F-999.99
sS'firmwareVer'
p10
g3
sS'i2cAddress'
p11
g3
sS'passedBrdg'
p12
I00
sS'uniqueID'
p13
g3
sS'passedHerm'
p14
I00
sb.